target datalayout = "e-m:e-p270:32:32-p271:32:32-p272:64:64-i64:64-i128:128-f80:128-n8:16:32:64-S128"
target triple = "x86_64-unknown-linux-gnu"

%"class.zmq::msg_t" = type { %union.anon.52 }
%union.anon.52 = type { %struct.anon }
%struct.anon = type { ptr, [34 x i8], i8, i8, i32, %"union.zmq::msg_t::group_t" }
%"union.zmq::msg_t::group_t" = type { %struct.anon.54 }
%struct.anon.54 = type { i8, ptr }

@stderr = external global ptr, align 8
@.str = private unnamed_addr constant [12 x i8] c"%s (%s:%d)\0A\00", align 1
@.str.1 = private unnamed_addr constant [103 x i8] c"generated/home/dtcxzyw/WorkSpace/Projects/compilers/llvm-opt-benchmark/bench/libzmq/libzmq/src/sub.cpp\00", align 1
@.str.2 = private unnamed_addr constant [103 x i8] c"generated/home/dtcxzyw/WorkSpace/Projects/compilers/llvm-opt-benchmark/bench/libzmq/libzmq/src/msg.hpp\00", align 1

; Function Attrs: mustprogress uwtable
define linkonce_odr noundef i32 @_ZN3zmq16close_and_returnEPNS_5msg_tEi(ptr noundef %msg_, i32 noundef %echo_) #0 comdat {
entry:
  %msg_.addr = alloca ptr, align 8
  %echo_.addr = alloca i32, align 4
  %err = alloca i32, align 4
  %rc = alloca i32, align 4
  %errstr = alloca ptr, align 8
  store ptr %msg_, ptr %msg_.addr, align 8
  store i32 %echo_, ptr %echo_.addr, align 4
  %call = call ptr @__errno_location() #9
  %0 = load i32, ptr %call, align 4
  store i32 %0, ptr %err, align 4
  %1 = load ptr, ptr %msg_.addr, align 8
  %call1 = call noundef i32 @_ZN3zmq5msg_t5closeEv(ptr noundef nonnull align 8 dereferenceable(64) %1)
  store i32 %call1, ptr %rc, align 4
  br label %do.body

do.body:                                          ; preds = %entry
  %2 = load i32, ptr %rc, align 4
  %cmp = icmp eq i32 %2, 0
  %lnot = xor i1 %cmp, true
  br i1 %lnot, label %if.then, label %if.end

if.then:                                          ; preds = %do.body
  %call2 = call ptr @__errno_location() #9
  %3 = load i32, ptr %call2, align 4
  %call3 = call ptr @strerror(i32 noundef %3) #7
  store ptr %call3, ptr %errstr, align 8
  %4 = load ptr, ptr @stderr, align 8
  %5 = load ptr, ptr %errstr, align 8
  %call4 = call i32 (ptr, ptr, ...) @fprintf(ptr noundef %4, ptr noundef @.str, ptr noundef %5, ptr noundef @.str.2, i32 noundef 305)
  %6 = load ptr, ptr @stderr, align 8
  %call5 = call i32 @fflush(ptr noundef %6)
  %7 = load ptr, ptr %errstr, align 8
  call void @_ZN3zmq9zmq_abortEPKc(ptr noundef %7)
  br label %if.end

if.end:                                           ; preds = %if.then, %do.body
  br label %do.end

do.end:                                           ; preds = %if.end
  %8 = load i32, ptr %err, align 4
  %call6 = call ptr @__errno_location() #9
  store i32 %8, ptr %call6, align 4
  %9 = load i32, ptr %echo_.addr, align 4
  ret i32 %9
}

; Function Attrs: mustprogress uwtable
define noundef i32 @_ZN3zmq5sub_t11xsetsockoptEiPKvm(ptr noundef nonnull align 8 dereferenceable(2032) %this, i32 noundef %option_, ptr noundef %optval_, i64 noundef %optvallen_) unnamed_addr #0 align 2 {
entry:
  %retval = alloca i32, align 4
  %this.addr = alloca ptr, align 8
  %option_.addr = alloca i32, align 4
  %optval_.addr = alloca ptr, align 8
  %optvallen_.addr = alloca i64, align 8
  %msg = alloca %"class.zmq::msg_t", align 8
  %rc = alloca i32, align 4
  %data = alloca ptr, align 8
  %errstr = alloca ptr, align 8
  store ptr %this, ptr %this.addr, align 8
  store i32 %option_, ptr %option_.addr, align 4
  store ptr %optval_, ptr %optval_.addr, align 8
  store i64 %optvallen_, ptr %optvallen_.addr, align 8
  %this1 = load ptr, ptr %this.addr, align 8
  %0 = load i32, ptr %option_.addr, align 4
  %cmp = icmp ne i32 %0, 6
  br i1 %cmp, label %land.lhs.true, label %if.end

land.lhs.true:                                    ; preds = %entry
  %1 = load i32, ptr %option_.addr, align 4
  %cmp2 = icmp ne i32 %1, 7
  br i1 %cmp2, label %if.then, label %if.end

if.then:                                          ; preds = %land.lhs.true
  %call = call ptr @__errno_location() #9
  store i32 22, ptr %call, align 4
  store i32 -1, ptr %retval, align 4
  br label %return

if.end:                                           ; preds = %land.lhs.true, %entry
  %2 = load ptr, ptr %optval_.addr, align 8
  store ptr %2, ptr %data, align 8
  %3 = load i32, ptr %option_.addr, align 4
  %cmp3 = icmp eq i32 %3, 6
  br i1 %cmp3, label %if.then4, label %if.else

if.then4:                                         ; preds = %if.end
  %4 = load i64, ptr %optvallen_.addr, align 8
  %5 = load ptr, ptr %data, align 8
  %call5 = call noundef i32 @_ZN3zmq5msg_t14init_subscribeEmPKh(ptr noundef nonnull align 8 dereferenceable(64) %msg, i64 noundef %4, ptr noundef %5)
  store i32 %call5, ptr %rc, align 4
  br label %if.end7

if.else:                                          ; preds = %if.end
  %6 = load i64, ptr %optvallen_.addr, align 8
  %7 = load ptr, ptr %data, align 8
  %call6 = call noundef i32 @_ZN3zmq5msg_t11init_cancelEmPKh(ptr noundef nonnull align 8 dereferenceable(64) %msg, i64 noundef %6, ptr noundef %7)
  store i32 %call6, ptr %rc, align 4
  br label %if.end7

if.end7:                                          ; preds = %if.else, %if.then4
  br label %do.body

do.body:                                          ; preds = %if.end7
  %8 = load i32, ptr %rc, align 4
  %cmp8 = icmp eq i32 %8, 0
  %lnot = xor i1 %cmp8, true
  br i1 %lnot, label %if.then9, label %if.end14

if.then9:                                         ; preds = %do.body
  %call10 = call ptr @__errno_location() #9
  %9 = load i32, ptr %call10, align 4
  %call11 = call ptr @strerror(i32 noundef %9) #7
  store ptr %call11, ptr %errstr, align 8
  %10 = load ptr, ptr @stderr, align 8
  %11 = load ptr, ptr %errstr, align 8
  %call12 = call i32 (ptr, ptr, ...) @fprintf(ptr noundef %10, ptr noundef @.str, ptr noundef %11, ptr noundef @.str.1, i32 noundef 39)
  %12 = load ptr, ptr @stderr, align 8
  %call13 = call i32 @fflush(ptr noundef %12)
  %13 = load ptr, ptr %errstr, align 8
  call void @_ZN3zmq9zmq_abortEPKc(ptr noundef %13)
  br label %if.end14

if.end14:                                         ; preds = %if.then9, %do.body
  br label %do.end

do.end:                                           ; preds = %if.end14
  %call15 = call noundef i32 @_ZN3zmq6xsub_t5xsendEPNS_5msg_tE(ptr noundef nonnull align 8 dereferenceable(2028) %this1, ptr noundef %msg)
  store i32 %call15, ptr %rc, align 4
  %14 = load i32, ptr %rc, align 4
  %call16 = call noundef i32 @_ZN3zmq16close_and_returnEPNS_5msg_tEi(ptr noundef %msg, i32 noundef %14)
  store i32 %call16, ptr %retval, align 4
  br label %return

return:                                           ; preds = %do.end, %if.then
  %15 = load i32, ptr %retval, align 4
  ret i32 %15
}