; Function Attrs: mustprogress uwtable
define noundef i32 @_ZN3zmq5sub_t11xsetsockoptEiPKvm(ptr noundef nonnull align 8 dereferenceable(2032) %this, i32 noundef %option_, ptr noundef %optval_, i64 noundef %optvallen_) unnamed_addr #0 align 2 {
entry:
  %msg = alloca %"class.zmq::msg_t", align 8
  %0 = add i32 %option_, -8
  %or.cond = icmp ult i32 %0, -2
  br i1 %or.cond, label %if.then, label %if.end

if.then:                                          ; preds = %entry
  %call = tail call ptr @__errno_location() #12
  store i32 22, ptr %call, align 4
  br label %return

if.end:                                           ; preds = %entry
  %cmp3 = icmp eq i32 %option_, 6
  br i1 %cmp3, label %if.then4, label %if.else

if.then4:                                         ; preds = %if.end
  %call5 = call noundef i32 @_ZN3zmq5msg_t14init_subscribeEmPKh(ptr noundef nonnull align 8 dereferenceable(64) %msg, i64 noundef %optvallen_, ptr noundef %optval_)
  br label %do.body

if.else:                                          ; preds = %if.end
  %call6 = call noundef i32 @_ZN3zmq5msg_t11init_cancelEmPKh(ptr noundef nonnull align 8 dereferenceable(64) %msg, i64 noundef %optvallen_, ptr noundef %optval_)
  br label %do.body

do.body:                                          ; preds = %if.then4, %if.else
  %rc.0 = phi i32 [ %call5, %if.then4 ], [ %call6, %if.else ]
  %cmp8.not = icmp eq i32 %rc.0, 0
  br i1 %cmp8.not, label %do.end, label %if.then9

if.then9:                                         ; preds = %do.body
  %call10 = tail call ptr @__errno_location() #12
  %1 = load i32, ptr %call10, align 4
  %call11 = call ptr @strerror(i32 noundef %1) #10
  %2 = load ptr, ptr @stderr, align 8
  %call12 = call i32 (ptr, ptr, ...) @fprintf(ptr noundef %2, ptr noundef nonnull @.str, ptr noundef %call11, ptr noundef nonnull @.str.1, i32 noundef 39) #13
  %3 = load ptr, ptr @stderr, align 8
  %call13 = call i32 @fflush(ptr noundef %3)
  call void @_ZN3zmq9zmq_abortEPKc(ptr noundef %call11)
  br label %do.end

do.end:                                           ; preds = %do.body, %if.then9
  %call15 = call noundef i32 @_ZN3zmq6xsub_t5xsendEPNS_5msg_tE(ptr noundef nonnull align 8 dereferenceable(2028) %this, ptr noundef nonnull %msg)
  %call.i = tail call ptr @__errno_location() #12
  %4 = load i32, ptr %call.i, align 4
  %call1.i = call noundef i32 @_ZN3zmq5msg_t5closeEv(ptr noundef nonnull align 8 dereferenceable(64) %msg)
  %cmp.not.i = icmp eq i32 %call1.i, 0
  br i1 %cmp.not.i, label %_ZN3zmq16close_and_returnEPNS_5msg_tEi.exit, label %if.then.i

if.then.i:                                        ; preds = %do.end
  %5 = load i32, ptr %call.i, align 4
  %call3.i = call ptr @strerror(i32 noundef %5) #10
  %6 = load ptr, ptr @stderr, align 8
  %call4.i = call i32 (ptr, ptr, ...) @fprintf(ptr noundef %6, ptr noundef nonnull @.str, ptr noundef %call3.i, ptr noundef nonnull @.str.2, i32 noundef 305) #13
  %7 = load ptr, ptr @stderr, align 8
  %call5.i = call i32 @fflush(ptr noundef %7)
  call void @_ZN3zmq9zmq_abortEPKc(ptr noundef %call3.i)
  br label %_ZN3zmq16close_and_returnEPNS_5msg_tEi.exit

_ZN3zmq16close_and_returnEPNS_5msg_tEi.exit:      ; preds = %do.end, %if.then.i
  store i32 %4, ptr %call.i, align 4
  br label %return

return:                                           ; preds = %_ZN3zmq16close_and_returnEPNS_5msg_tEi.exit, %if.then
  %retval.0 = phi i32 [ -1, %if.then ], [ %call15, %_ZN3zmq16close_and_returnEPNS_5msg_tEi.exit ]
  ret i32 %retval.0
}